target datalayout = "e-m:e-p270:32:32-p271:32:32-p272:64:64-i64:64-i128:128-f80:128-n8:16:32:64-S128"
target triple = "x86_64-pc-linux-gnu"

%class.xmlStream = type { %class.outputStream, ptr, i64, i32, ptr, %class.xmlTextStream }
%class.outputStream = type { ptr, i32, i8, i32, i64, %class.TimeStamp, ptr, i64 }
%class.TimeStamp = type { i64 }
%class.xmlTextStream = type { %class.outputStream, ptr }

@.str = private unnamed_addr constant [7 x i8] c"&apos;\00", align 1
@.str.4 = private unnamed_addr constant [7 x i8] c"&quot;\00", align 1
@.str.5 = private unnamed_addr constant [5 x i8] c"&lt;\00", align 1
@.str.6 = private unnamed_addr constant [6 x i8] c"&amp;\00", align 1
@.str.7 = private unnamed_addr constant [5 x i8] c"&gt;\00", align 1

; Function Attrs: mustprogress nounwind uwtable
define linkonce_odr hidden void @_ZN12outputStream9print_rawEPKc(ptr noundef nonnull align 8 dereferenceable(56) %0, ptr noundef %1) #1 comdat align 2 {
  %3 = alloca ptr, align 8
  %4 = alloca ptr, align 8
  store ptr %0, ptr %3, align 8
  store ptr %1, ptr %4, align 8
  %5 = load ptr, ptr %3, align 8
  %6 = load ptr, ptr %4, align 8
  %7 = load ptr, ptr %4, align 8
  %8 = call i64 @strlen(ptr noundef %7) #8
  call void @_ZN12outputStream9print_rawEPKcm(ptr noundef nonnull align 8 dereferenceable(56) %5, ptr noundef %6, i64 noundef %8)
  ret void
}

; Function Attrs: mustprogress nounwind uwtable
define linkonce_odr hidden noundef ptr @_ZN9xmlStream3outEv(ptr noundef nonnull align 8 dereferenceable(152) %0) #1 comdat align 2 {
  %2 = alloca ptr, align 8
  store ptr %0, ptr %2, align 8
  %3 = load ptr, ptr %2, align 8
  %4 = getelementptr inbounds %class.xmlStream, ptr %3, i32 0, i32 1
  %5 = load ptr, ptr %4, align 8
  ret ptr %5
}

; Function Attrs: mustprogress nounwind uwtable
define linkonce_odr hidden noundef zeroext i1 @_ZN9xmlStream7is_openEv(ptr noundef nonnull align 8 dereferenceable(152) %0) #1 comdat align 2 {
  %2 = alloca ptr, align 8
  store ptr %0, ptr %2, align 8
  %3 = load ptr, ptr %2, align 8
  %4 = getelementptr inbounds %class.xmlStream, ptr %3, i32 0, i32 1
  %5 = load ptr, ptr %4, align 8
  %6 = icmp ne ptr %5, null
  ret i1 %6
}

; Function Attrs: mustprogress nounwind uwtable
define hidden void @_ZN9xmlStream10write_textEPKcm(ptr noundef nonnull align 8 dereferenceable(152) %0, ptr noundef %1, i64 noundef %2) #1 align 2 {
  %4 = alloca ptr, align 8
  %5 = alloca ptr, align 8
  %6 = alloca i64, align 8
  %7 = alloca i64, align 8
  %8 = alloca i64, align 8
  %9 = alloca i8, align 1
  %10 = alloca ptr, align 8
  store ptr %0, ptr %4, align 8
  store ptr %1, ptr %5, align 8
  store i64 %2, ptr %6, align 8
  %11 = load ptr, ptr %4, align 8
  %12 = call noundef zeroext i1 @_ZN9xmlStream7is_openEv(ptr noundef nonnull align 8 dereferenceable(152) %11)
  br i1 %12, label %14, label %13

13:                                               ; preds = %3
  br label %74

14:                                               ; preds = %3
  store i64 0, ptr %7, align 8
  store i64 0, ptr %8, align 8
  br label %15

15:                                               ; preds = %56, %14
  %16 = load i64, ptr %8, align 8
  %17 = load i64, ptr %6, align 8
  %18 = icmp ult i64 %16, %17
  br i1 %18, label %19, label %59

19:                                               ; preds = %15
  %20 = load ptr, ptr %5, align 8
  %21 = load i64, ptr %8, align 8
  %22 = getelementptr inbounds i8, ptr %20, i64 %21
  %23 = load i8, ptr %22, align 1
  store i8 %23, ptr %9, align 1
  store ptr null, ptr %10, align 8
  %24 = load i8, ptr %9, align 1
  %25 = sext i8 %24 to i32
  switch i32 %25, label %31 [
    i32 39, label %26
    i32 34, label %27
    i32 60, label %28
    i32 38, label %29
    i32 62, label %30
  ]

26:                                               ; preds = %19
  store ptr @.str, ptr %10, align 8
  br label %31

27:                                               ; preds = %19
  store ptr @.str.4, ptr %10, align 8
  br label %31

28:                                               ; preds = %19
  store ptr @.str.5, ptr %10, align 8
  br label %31

29:                                               ; preds = %19
  store ptr @.str.6, ptr %10, align 8
  br label %31

30:                                               ; preds = %19
  store ptr @.str.7, ptr %10, align 8
  br label %31

31:                                               ; preds = %30, %29, %28, %27, %26, %19
  %32 = load ptr, ptr %10, align 8
  %33 = icmp ne ptr %32, null
  br i1 %33, label %34, label %55

34:                                               ; preds = %31
  %35 = load i64, ptr %7, align 8
  %36 = load i64, ptr %8, align 8
  %37 = icmp ult i64 %35, %36
  br i1 %37, label %38, label %50

38:                                               ; preds = %34
  %39 = call noundef ptr @_ZN9xmlStream3outEv(ptr noundef nonnull align 8 dereferenceable(152) %11)
  %40 = load ptr, ptr %5, align 8
  %41 = load i64, ptr %7, align 8
  %42 = getelementptr inbounds i8, ptr %40, i64 %41
  %43 = load i64, ptr %8, align 8
  %44 = load i64, ptr %7, align 8
  %45 = sub i64 %43, %44
  %46 = load ptr, ptr %39, align 8
  %47 = getelementptr inbounds ptr, ptr %46, i64 1
  %48 = load ptr, ptr %47, align 8
  call void %48(ptr noundef nonnull align 8 dereferenceable(56) %39, ptr noundef %42, i64 noundef %45)
  %49 = load i64, ptr %8, align 8
  store i64 %49, ptr %7, align 8
  br label %50

50:                                               ; preds = %38, %34
  %51 = call noundef ptr @_ZN9xmlStream3outEv(ptr noundef nonnull align 8 dereferenceable(152) %11)
  %52 = load ptr, ptr %10, align 8
  call void @_ZN12outputStream9print_rawEPKc(ptr noundef nonnull align 8 dereferenceable(56) %51, ptr noundef %52)
  %53 = load i64, ptr %7, align 8
  %54 = add i64 %53, 1
  store i64 %54, ptr %7, align 8
  br label %55

55:                                               ; preds = %50, %31
  br label %56

56:                                               ; preds = %55
  %57 = load i64, ptr %8, align 8
  %58 = add i64 %57, 1
  store i64 %58, ptr %8, align 8
  br label %15, !llvm.loop !6

59:                                               ; preds = %15
  %60 = load i64, ptr %7, align 8
  %61 = load i64, ptr %6, align 8
  %62 = icmp ult i64 %60, %61
  br i1 %62, label %63, label %74

63:                                               ; preds = %59
  %64 = call noundef ptr @_ZN9xmlStream3outEv(ptr noundef nonnull align 8 dereferenceable(152) %11)
  %65 = load ptr, ptr %5, align 8
  %66 = load i64, ptr %7, align 8
  %67 = getelementptr inbounds i8, ptr %65, i64 %66
  %68 = load i64, ptr %6, align 8
  %69 = load i64, ptr %7, align 8
  %70 = sub i64 %68, %69
  %71 = load ptr, ptr %64, align 8
  %72 = getelementptr inbounds ptr, ptr %71, i64 1
  %73 = load ptr, ptr %72, align 8
  call void %73(ptr noundef nonnull align 8 dereferenceable(56) %64, ptr noundef %67, i64 noundef %70)
  br label %74

74:                                               ; preds = %63, %59, %13
  ret void
}