; Function Attrs: mustprogress nounwind uwtable
define hidden void @_ZN9xmlStream10write_textEPKcm(ptr nocapture noundef nonnull readonly align 8 dereferenceable(152) %0, ptr noundef %1, i64 noundef %2) local_unnamed_addr #0 align 2 {
  %4 = getelementptr inbounds i8, ptr %0, i64 56
  %5 = load ptr, ptr %4, align 8
  %.not = icmp eq ptr %5, null
  br i1 %.not, label %34, label %.preheader

.preheader:                                       ; preds = %3
  %.not31 = icmp eq i64 %2, 0
  br i1 %.not31, label %._crit_edge, label %.lr.ph

.lr.ph:                                           ; preds = %.preheader, %24
  %.02230 = phi i64 [ %.2, %24 ], [ 0, %.preheader ]
  %.02328 = phi i64 [ %25, %24 ], [ 0, %.preheader ]
  %6 = getelementptr inbounds i8, ptr %1, i64 %.02328
  %7 = load i8, ptr %6, align 1
  switch i8 %7, label %24 [
    i8 39, label %12
    i8 34, label %8
    i8 60, label %9
    i8 38, label %10
    i8 62, label %11
  ]

8:                                                ; preds = %.lr.ph
  br label %12

9:                                                ; preds = %.lr.ph
  br label %12

10:                                               ; preds = %.lr.ph
  br label %12

11:                                               ; preds = %.lr.ph
  br label %12

12:                                               ; preds = %.lr.ph, %11, %10, %9, %8
  %.0.ph = phi ptr [ @.str.4, %8 ], [ @.str.5, %9 ], [ @.str.6, %10 ], [ @.str.7, %11 ], [ @.str, %.lr.ph ]
  %13 = icmp ult i64 %.02230, %.02328
  %.pre32 = load ptr, ptr %4, align 8
  br i1 %13, label %14, label %20

14:                                               ; preds = %12
  %15 = getelementptr inbounds i8, ptr %1, i64 %.02230
  %16 = sub i64 %.02328, %.02230
  %17 = load ptr, ptr %.pre32, align 8
  %18 = getelementptr inbounds i8, ptr %17, i64 8
  %19 = load ptr, ptr %18, align 8
  tail call void %19(ptr noundef nonnull align 8 dereferenceable(56) %.pre32, ptr noundef %15, i64 noundef %16) #8
  %.pre = load ptr, ptr %4, align 8
  br label %20

20:                                               ; preds = %14, %12
  %21 = phi ptr [ %.pre, %14 ], [ %.pre32, %12 ]
  %.1 = phi i64 [ %.02328, %14 ], [ %.02230, %12 ]
  %22 = tail call i64 @strlen(ptr noundef nonnull dereferenceable(1) %.0.ph) #9
  tail call void @_ZN12outputStream9print_rawEPKcm(ptr noundef nonnull align 8 dereferenceable(56) %21, ptr noundef nonnull %.0.ph, i64 noundef %22) #8
  %23 = add i64 %.1, 1
  br label %24

24:                                               ; preds = %.lr.ph, %20
  %.2 = phi i64 [ %23, %20 ], [ %.02230, %.lr.ph ]
  %25 = add nuw i64 %.02328, 1
  %exitcond.not = icmp eq i64 %25, %2
  br i1 %exitcond.not, label %._crit_edge, label %.lr.ph, !llvm.loop !6

._crit_edge:                                      ; preds = %24, %.preheader
  %.022.lcssa = phi i64 [ 0, %.preheader ], [ %.2, %24 ]
  %26 = icmp ult i64 %.022.lcssa, %2
  br i1 %26, label %27, label %34

27:                                               ; preds = %._crit_edge
  %28 = load ptr, ptr %4, align 8
  %29 = getelementptr inbounds i8, ptr %1, i64 %.022.lcssa
  %30 = sub i64 %2, %.022.lcssa
  %31 = load ptr, ptr %28, align 8
  %32 = getelementptr inbounds i8, ptr %31, i64 8
  %33 = load ptr, ptr %32, align 8
  tail call void %33(ptr noundef nonnull align 8 dereferenceable(56) %28, ptr noundef %29, i64 noundef %30) #8
  br label %34

34:                                               ; preds = %3, %27, %._crit_edge
  ret void
}